; Function Attrs: mustprogress uwtable
define void @_ZN6google8protobuf8compiler8Importer24AddUnusedImportTrackFileERKNSt7__cxx1112basic_stringIcSt11char_traitsIcESaIcEEEb(ptr noundef nonnull align 8 dereferenceable(216) %this, ptr noundef nonnull align 8 dereferenceable(32) %file_name, i1 noundef zeroext %is_error) local_unnamed_addr #6 align 2 {
entry:
  %pool_ = getelementptr inbounds i8, ptr %this, i64 120
  %call = tail call { i64, ptr } @_ZNKSt7__cxx1112basic_stringIcSt11char_traitsIcESaIcEEcvSt17basic_string_viewIcS2_EEv(ptr noundef nonnull align 8 dereferenceable(32) %file_name) #25
  %0 = extractvalue { i64, ptr } %call, 0
  %1 = extractvalue { i64, ptr } %call, 1
  tail call void @_ZN6google8protobuf14DescriptorPool24AddUnusedImportTrackFileESt17basic_string_viewIcSt11char_traitsIcEEb(ptr noundef nonnull align 8 dereferenceable(96) %pool_, i64 %0, ptr %1, i1 noundef zeroext %is_error)
  ret void
}